; Function Attrs: nounwind uwtable
define hidden noundef signext i8 @nfaExecMcClellan16_reportCurrent(ptr noundef readonly captures(none) %0, ptr noundef readonly captures(none) %1) local_unnamed_addr #0 {
  %3 = getelementptr inbounds nuw i8, ptr %0, i64 64
  %4 = getelementptr inbounds nuw i8, ptr %1, i64 88
  %5 = load ptr, ptr %4, align 8
  %6 = getelementptr inbounds nuw i8, ptr %1, i64 96
  %7 = load ptr, ptr %6, align 8
  %8 = getelementptr inbounds nuw i8, ptr %1, i64 16
  %9 = load ptr, ptr %8, align 8
  %10 = load i16, ptr %9, align 2
  %11 = getelementptr inbounds nuw i8, ptr %0, i64 76
  %12 = load i32, ptr %11, align 4
  %13 = zext i32 %12 to i64
  %14 = getelementptr inbounds nuw i8, ptr %0, i64 %13
  %15 = zext i16 %10 to i64
  %16 = getelementptr inbounds nuw %struct.mstate_aux, ptr %14, i64 %15
  %17 = getelementptr inbounds nuw i8, ptr %1, i64 32
  %18 = load i64, ptr %17, align 8
  %19 = getelementptr inbounds nuw i8, ptr %1, i64 8
  %20 = load i32, ptr %19, align 8
  %21 = zext i32 %20 to i64
  %.idx.i = mul nuw nsw i64 %21, 24
  %22 = getelementptr i8, ptr %1, i64 112
  %23 = getelementptr i8, ptr %22, i64 %.idx.i
  %24 = load i64, ptr %23, align 8
  %25 = add i64 %24, %18
  %26 = load i32, ptr %16, align 4
  %.not = icmp eq i32 %26, 0
  br i1 %.not, label %doComplexReport.exit, label %27

27:                                               ; preds = %2
  %28 = getelementptr inbounds nuw i8, ptr %0, i64 97
  %29 = load i8, ptr %28, align 1
  %30 = and i8 %29, 1
  %.not18 = icmp eq i8 %30, 0
  br i1 %.not18, label %34, label %31

31:                                               ; preds = %27
  %32 = getelementptr inbounds nuw i8, ptr %0, i64 356
  %33 = load i32, ptr %32, align 4
  br label %doComplexReport.exit.sink.split

34:                                               ; preds = %27
  %35 = icmp eq i16 %10, 0
  br i1 %35, label %doComplexReport.exit.sink.split, label %36

36:                                               ; preds = %34
  %37 = zext i32 %26 to i64
  %38 = getelementptr inbounds nuw i8, ptr %3, i64 %37
  %39 = getelementptr inbounds i8, ptr %38, i64 -64
  %40 = load i32, ptr %39, align 4
  %41 = getelementptr inbounds i8, ptr %38, i64 -60
  switch i32 %40, label %.lr.ph.preheader [
    i32 1, label %42
    i32 0, label %doComplexReport.exit
  ]

.lr.ph.preheader:                                 ; preds = %36
  %wide.trip.count = zext i32 %40 to i64
  br label %.lr.ph

42:                                               ; preds = %36
  %43 = load i32, ptr %41, align 4
  br label %doComplexReport.exit.sink.split

.lr.ph:                                           ; preds = %.lr.ph, %.lr.ph.preheader
  %indvars.iv = phi i64 [ 0, %.lr.ph.preheader ], [ %indvars.iv.next, %.lr.ph ]
  %44 = getelementptr inbounds nuw [0 x i32], ptr %41, i64 0, i64 %indvars.iv
  %45 = load i32, ptr %44, align 4
  %46 = tail call i32 %5(i64 noundef 0, i64 noundef %25, i32 noundef %45, ptr noundef %7) #15
  %47 = icmp eq i32 %46, 0
  %indvars.iv.next = add nuw nsw i64 %indvars.iv, 1
  %exitcond.not = icmp eq i64 %indvars.iv.next, %wide.trip.count
  %or.cond = select i1 %47, i1 true, i1 %exitcond.not
  br i1 %or.cond, label %doComplexReport.exit, label %.lr.ph

doComplexReport.exit.sink.split:                  ; preds = %34, %31, %42
  %.sink = phi i32 [ %43, %42 ], [ %33, %31 ], [ 0, %34 ]
  %48 = tail call i32 %5(i64 noundef 0, i64 noundef %25, i32 noundef %.sink, ptr noundef %7) #15
  br label %doComplexReport.exit

doComplexReport.exit:                             ; preds = %.lr.ph, %doComplexReport.exit.sink.split, %36, %2
  ret i8 0
}